target datalayout = "e-m:e-p270:32:32-p271:32:32-p272:64:64-i64:64-i128:128-f80:128-n8:16:32:64-S128"
target triple = "x86_64-pc-linux-gnu"

%struct._ir_insn = type { %struct.anon, %union.anon.5 }
%struct.anon = type { %union.anon, %union.anon.4 }
%union.anon = type { i32 }
%union.anon.4 = type { i32 }
%union.anon.5 = type { %union._ir_val }
%union._ir_val = type { double }
%struct._ir_ctx = type { ptr, i32, i32, i32, i32, i32, i32, i32, i32, i32, i32, %struct._ir_insn, ptr, ptr, ptr, i32, i32, i32, ptr, ptr, ptr, ptr, ptr, i32, i32, i64, i32, i32, i32, i64, i32, i32, i32, i32, ptr, ptr, ptr, ptr, ptr, ptr, %union.anon.13, ptr, i32, i32, i32, i64, i32, i32, i32, ptr, ptr, ptr, ptr, %struct._ir_strtab, [61 x i32], [14 x i32] }
%union.anon.13 = type { ptr }
%struct._ir_strtab = type { ptr, i32, i32, i32, i32, ptr, i32, i32 }
%struct._ir_arena = type { ptr, ptr, ptr }
%struct._ir_array = type { ptr, i32 }
%struct._ir_list = type { %struct._ir_array, i32 }
%struct._ir_hashtab = type { ptr, i32, i32, i32, i32 }

; Function Attrs: nounwind uwtable
define hidden void @ir_hashtab_free(ptr noundef %0) #0 {
  %2 = alloca ptr, align 8
  %3 = alloca i32, align 4
  %4 = alloca ptr, align 8
  store ptr %0, ptr %2, align 8
  %5 = load ptr, ptr %2, align 8
  %6 = getelementptr inbounds %struct._ir_hashtab, ptr %5, i32 0, i32 1
  %7 = load i32, ptr %6, align 8
  %8 = sub nsw i32 0, %7
  store i32 %8, ptr %3, align 4
  %9 = load ptr, ptr %2, align 8
  %10 = getelementptr inbounds %struct._ir_hashtab, ptr %9, i32 0, i32 0
  %11 = load ptr, ptr %10, align 8
  %12 = load i32, ptr %3, align 4
  %13 = zext i32 %12 to i64
  %14 = mul i64 %13, 4
  %15 = sub i64 0, %14
  %16 = getelementptr inbounds i8, ptr %11, i64 %15
  store ptr %16, ptr %4, align 8
  %17 = load ptr, ptr %4, align 8
  call void @_efree(ptr noundef %17)
  %18 = load ptr, ptr %2, align 8
  %19 = getelementptr inbounds %struct._ir_hashtab, ptr %18, i32 0, i32 0
  store ptr null, ptr %19, align 8
  ret void
}

; Function Attrs: nounwind uwtable
define hidden void @ir_free(ptr noundef %0) #0 {
  %2 = alloca ptr, align 8
  %3 = alloca ptr, align 8
  %4 = alloca ptr, align 8
  %5 = alloca ptr, align 8
  %6 = alloca ptr, align 8
  %7 = alloca ptr, align 8
  store ptr %0, ptr %6, align 8
  %8 = load ptr, ptr %6, align 8
  %9 = getelementptr inbounds %struct._ir_ctx, ptr %8, i32 0, i32 0
  %10 = load ptr, ptr %9, align 8
  %11 = load ptr, ptr %6, align 8
  %12 = getelementptr inbounds %struct._ir_ctx, ptr %11, i32 0, i32 4
  %13 = load i32, ptr %12, align 4
  %14 = sext i32 %13 to i64
  %15 = sub i64 0, %14
  %16 = getelementptr inbounds %struct._ir_insn, ptr %10, i64 %15
  store ptr %16, ptr %7, align 8
  %17 = load ptr, ptr %7, align 8
  call void @_efree(ptr noundef %17)
  %18 = load ptr, ptr %6, align 8
  %19 = getelementptr inbounds %struct._ir_ctx, ptr %18, i32 0, i32 53
  %20 = getelementptr inbounds %struct._ir_strtab, ptr %19, i32 0, i32 0
  %21 = load ptr, ptr %20, align 8
  %22 = icmp ne ptr %21, null
  br i1 %22, label %23, label %26

23:                                               ; preds = %1
  %24 = load ptr, ptr %6, align 8
  %25 = getelementptr inbounds %struct._ir_ctx, ptr %24, i32 0, i32 53
  call void @ir_strtab_free(ptr noundef %25)
  br label %26

26:                                               ; preds = %23, %1
  %27 = load ptr, ptr %6, align 8
  %28 = getelementptr inbounds %struct._ir_ctx, ptr %27, i32 0, i32 12
  %29 = load ptr, ptr %28, align 8
  %30 = icmp ne ptr %29, null
  br i1 %30, label %31, label %38

31:                                               ; preds = %26
  %32 = load ptr, ptr %6, align 8
  %33 = getelementptr inbounds %struct._ir_ctx, ptr %32, i32 0, i32 12
  %34 = load ptr, ptr %33, align 8
  call void @ir_hashtab_free(ptr noundef %34)
  %35 = load ptr, ptr %6, align 8
  %36 = getelementptr inbounds %struct._ir_ctx, ptr %35, i32 0, i32 12
  %37 = load ptr, ptr %36, align 8
  call void @_efree(ptr noundef %37)
  br label %38

38:                                               ; preds = %31, %26
  %39 = load ptr, ptr %6, align 8
  %40 = getelementptr inbounds %struct._ir_ctx, ptr %39, i32 0, i32 13
  %41 = load ptr, ptr %40, align 8
  %42 = icmp ne ptr %41, null
  br i1 %42, label %43, label %47

43:                                               ; preds = %38
  %44 = load ptr, ptr %6, align 8
  %45 = getelementptr inbounds %struct._ir_ctx, ptr %44, i32 0, i32 13
  %46 = load ptr, ptr %45, align 8
  call void @_efree(ptr noundef %46)
  br label %47

47:                                               ; preds = %43, %38
  %48 = load ptr, ptr %6, align 8
  %49 = getelementptr inbounds %struct._ir_ctx, ptr %48, i32 0, i32 14
  %50 = load ptr, ptr %49, align 8
  %51 = icmp ne ptr %50, null
  br i1 %51, label %52, label %56

52:                                               ; preds = %47
  %53 = load ptr, ptr %6, align 8
  %54 = getelementptr inbounds %struct._ir_ctx, ptr %53, i32 0, i32 14
  %55 = load ptr, ptr %54, align 8
  call void @_efree(ptr noundef %55)
  br label %56

56:                                               ; preds = %52, %47
  %57 = load ptr, ptr %6, align 8
  %58 = getelementptr inbounds %struct._ir_ctx, ptr %57, i32 0, i32 18
  %59 = load ptr, ptr %58, align 8
  %60 = icmp ne ptr %59, null
  br i1 %60, label %61, label %65

61:                                               ; preds = %56
  %62 = load ptr, ptr %6, align 8
  %63 = getelementptr inbounds %struct._ir_ctx, ptr %62, i32 0, i32 18
  %64 = load ptr, ptr %63, align 8
  call void @_efree(ptr noundef %64)
  br label %65

65:                                               ; preds = %61, %56
  %66 = load ptr, ptr %6, align 8
  %67 = getelementptr inbounds %struct._ir_ctx, ptr %66, i32 0, i32 19
  %68 = load ptr, ptr %67, align 8
  %69 = icmp ne ptr %68, null
  br i1 %69, label %70, label %74

70:                                               ; preds = %65
  %71 = load ptr, ptr %6, align 8
  %72 = getelementptr inbounds %struct._ir_ctx, ptr %71, i32 0, i32 19
  %73 = load ptr, ptr %72, align 8
  call void @_efree(ptr noundef %73)
  br label %74

74:                                               ; preds = %70, %65
  %75 = load ptr, ptr %6, align 8
  %76 = getelementptr inbounds %struct._ir_ctx, ptr %75, i32 0, i32 20
  %77 = load ptr, ptr %76, align 8
  %78 = icmp ne ptr %77, null
  br i1 %78, label %79, label %83

79:                                               ; preds = %74
  %80 = load ptr, ptr %6, align 8
  %81 = getelementptr inbounds %struct._ir_ctx, ptr %80, i32 0, i32 20
  %82 = load ptr, ptr %81, align 8
  call void @_efree(ptr noundef %82)
  br label %83

83:                                               ; preds = %79, %74
  %84 = load ptr, ptr %6, align 8
  %85 = getelementptr inbounds %struct._ir_ctx, ptr %84, i32 0, i32 21
  %86 = load ptr, ptr %85, align 8
  %87 = icmp ne ptr %86, null
  br i1 %87, label %88, label %92

88:                                               ; preds = %83
  %89 = load ptr, ptr %6, align 8
  %90 = getelementptr inbounds %struct._ir_ctx, ptr %89, i32 0, i32 21
  %91 = load ptr, ptr %90, align 8
  call void @_efree(ptr noundef %91)
  br label %92

92:                                               ; preds = %88, %83
  %93 = load ptr, ptr %6, align 8
  %94 = getelementptr inbounds %struct._ir_ctx, ptr %93, i32 0, i32 22
  %95 = load ptr, ptr %94, align 8
  %96 = icmp ne ptr %95, null
  br i1 %96, label %97, label %101

97:                                               ; preds = %92
  %98 = load ptr, ptr %6, align 8
  %99 = getelementptr inbounds %struct._ir_ctx, ptr %98, i32 0, i32 22
  %100 = load ptr, ptr %99, align 8
  call void @_efree(ptr noundef %100)
  br label %101

101:                                              ; preds = %97, %92
  %102 = load ptr, ptr %6, align 8
  %103 = getelementptr inbounds %struct._ir_ctx, ptr %102, i32 0, i32 34
  %104 = load ptr, ptr %103, align 8
  %105 = icmp ne ptr %104, null
  br i1 %105, label %106, label %110

106:                                              ; preds = %101
  %107 = load ptr, ptr %6, align 8
  %108 = getelementptr inbounds %struct._ir_ctx, ptr %107, i32 0, i32 34
  %109 = load ptr, ptr %108, align 8
  call void @_efree(ptr noundef %109)
  br label %110

110:                                              ; preds = %106, %101
  %111 = load ptr, ptr %6, align 8
  %112 = getelementptr inbounds %struct._ir_ctx, ptr %111, i32 0, i32 35
  %113 = load ptr, ptr %112, align 8
  %114 = icmp ne ptr %113, null
  br i1 %114, label %115, label %128

115:                                              ; preds = %110
  %116 = load ptr, ptr %6, align 8
  %117 = getelementptr inbounds %struct._ir_ctx, ptr %116, i32 0, i32 35
  %118 = load ptr, ptr %117, align 8
  store ptr %118, ptr %4, align 8
  br label %119

119:                                              ; preds = %119, %115
  %120 = load ptr, ptr %4, align 8
  %121 = getelementptr inbounds %struct._ir_arena, ptr %120, i32 0, i32 2
  %122 = load ptr, ptr %121, align 8
  store ptr %122, ptr %5, align 8
  %123 = load ptr, ptr %4, align 8
  call void @_efree(ptr noundef %123) #11
  %124 = load ptr, ptr %5, align 8
  store ptr %124, ptr %4, align 8
  %125 = load ptr, ptr %4, align 8
  %126 = icmp ne ptr %125, null
  br i1 %126, label %119, label %127

127:                                              ; preds = %119
  br label %128

128:                                              ; preds = %127, %110
  %129 = load ptr, ptr %6, align 8
  %130 = getelementptr inbounds %struct._ir_ctx, ptr %129, i32 0, i32 37
  %131 = load ptr, ptr %130, align 8
  %132 = icmp ne ptr %131, null
  br i1 %132, label %133, label %149

133:                                              ; preds = %128
  %134 = load ptr, ptr %6, align 8
  %135 = getelementptr inbounds %struct._ir_ctx, ptr %134, i32 0, i32 37
  %136 = load ptr, ptr %135, align 8
  call void @_efree(ptr noundef %136)
  %137 = load ptr, ptr %6, align 8
  %138 = getelementptr inbounds %struct._ir_ctx, ptr %137, i32 0, i32 38
  %139 = load ptr, ptr %138, align 8
  %140 = icmp ne ptr %139, null
  br i1 %140, label %141, label %148

141:                                              ; preds = %133
  %142 = load ptr, ptr %6, align 8
  %143 = getelementptr inbounds %struct._ir_ctx, ptr %142, i32 0, i32 38
  %144 = load ptr, ptr %143, align 8
  call void @ir_strtab_free(ptr noundef %144)
  %145 = load ptr, ptr %6, align 8
  %146 = getelementptr inbounds %struct._ir_ctx, ptr %145, i32 0, i32 38
  %147 = load ptr, ptr %146, align 8
  call void @_efree(ptr noundef %147)
  br label %148

148:                                              ; preds = %141, %133
  br label %149

149:                                              ; preds = %148, %128
  %150 = load ptr, ptr %6, align 8
  %151 = getelementptr inbounds %struct._ir_ctx, ptr %150, i32 0, i32 39
  %152 = load ptr, ptr %151, align 8
  %153 = icmp ne ptr %152, null
  br i1 %153, label %154, label %158

154:                                              ; preds = %149
  %155 = load ptr, ptr %6, align 8
  %156 = getelementptr inbounds %struct._ir_ctx, ptr %155, i32 0, i32 39
  %157 = load ptr, ptr %156, align 8
  call void @_efree(ptr noundef %157)
  br label %158

158:                                              ; preds = %154, %149
  %159 = load ptr, ptr %6, align 8
  %160 = getelementptr inbounds %struct._ir_ctx, ptr %159, i32 0, i32 49
  %161 = load ptr, ptr %160, align 8
  %162 = icmp ne ptr %161, null
  br i1 %162, label %163, label %167

163:                                              ; preds = %158
  %164 = load ptr, ptr %6, align 8
  %165 = getelementptr inbounds %struct._ir_ctx, ptr %164, i32 0, i32 49
  %166 = load ptr, ptr %165, align 8
  call void @_efree(ptr noundef %166)
  br label %167

167:                                              ; preds = %163, %158
  %168 = load ptr, ptr %6, align 8
  %169 = getelementptr inbounds %struct._ir_ctx, ptr %168, i32 0, i32 50
  %170 = load ptr, ptr %169, align 8
  %171 = icmp ne ptr %170, null
  br i1 %171, label %172, label %187

172:                                              ; preds = %167
  %173 = load ptr, ptr %6, align 8
  %174 = getelementptr inbounds %struct._ir_ctx, ptr %173, i32 0, i32 50
  %175 = load ptr, ptr %174, align 8
  store ptr %175, ptr %3, align 8
  %176 = load ptr, ptr %3, align 8
  store ptr %176, ptr %2, align 8
  %177 = load ptr, ptr %2, align 8
  %178 = load ptr, ptr %177, align 8
  call void @_efree(ptr noundef %178) #11
  %179 = load ptr, ptr %2, align 8
  store ptr null, ptr %179, align 8
  %180 = load ptr, ptr %2, align 8
  %181 = getelementptr inbounds %struct._ir_array, ptr %180, i32 0, i32 1
  store i32 0, ptr %181, align 8
  %182 = load ptr, ptr %3, align 8
  %183 = getelementptr inbounds %struct._ir_list, ptr %182, i32 0, i32 1
  store i32 0, ptr %183, align 8
  %184 = load ptr, ptr %6, align 8
  %185 = getelementptr inbounds %struct._ir_ctx, ptr %184, i32 0, i32 50
  %186 = load ptr, ptr %185, align 8
  call void @_efree(ptr noundef %186)
  br label %187

187:                                              ; preds = %172, %167
  ret void
}