; Function Attrs: nounwind uwtable
define hidden void @ir_free(ptr noundef %0) local_unnamed_addr #0 {
  %2 = load ptr, ptr %0, align 8
  %3 = getelementptr inbounds i8, ptr %0, i64 20
  %4 = load i32, ptr %3, align 4
  %5 = sext i32 %4 to i64
  %6 = sub nsw i64 0, %5
  %7 = getelementptr inbounds %struct._ir_insn, ptr %2, i64 %6
  tail call void @_efree(ptr noundef %7) #20
  %8 = getelementptr inbounds i8, ptr %0, i64 336
  %9 = load ptr, ptr %8, align 8
  %.not = icmp eq ptr %9, null
  br i1 %.not, label %11, label %10

10:                                               ; preds = %1
  tail call void @ir_strtab_free(ptr noundef nonnull %8) #20
  br label %11

11:                                               ; preds = %10, %1
  %12 = getelementptr inbounds i8, ptr %0, i64 64
  %13 = load ptr, ptr %12, align 8
  %.not62 = icmp eq ptr %13, null
  br i1 %.not62, label %22, label %14

14:                                               ; preds = %11
  %15 = getelementptr inbounds i8, ptr %13, i64 8
  %16 = load i32, ptr %15, align 8
  %17 = sub nsw i32 0, %16
  %18 = load ptr, ptr %13, align 8
  %19 = zext i32 %17 to i64
  %.neg.i = mul nsw i64 %19, -4
  %20 = getelementptr inbounds i8, ptr %18, i64 %.neg.i
  tail call void @_efree(ptr noundef %20) #20
  store ptr null, ptr %13, align 8
  %21 = load ptr, ptr %12, align 8
  tail call void @_efree(ptr noundef %21) #20
  br label %22

22:                                               ; preds = %14, %11
  %23 = getelementptr inbounds i8, ptr %0, i64 72
  %24 = load ptr, ptr %23, align 8
  %.not63 = icmp eq ptr %24, null
  br i1 %.not63, label %26, label %25

25:                                               ; preds = %22
  tail call void @_efree(ptr noundef nonnull %24) #20
  br label %26

26:                                               ; preds = %25, %22
  %27 = getelementptr inbounds i8, ptr %0, i64 80
  %28 = load ptr, ptr %27, align 8
  %.not64 = icmp eq ptr %28, null
  br i1 %.not64, label %30, label %29

29:                                               ; preds = %26
  tail call void @_efree(ptr noundef nonnull %28) #20
  br label %30

30:                                               ; preds = %29, %26
  %31 = getelementptr inbounds i8, ptr %0, i64 104
  %32 = load ptr, ptr %31, align 8
  %.not65 = icmp eq ptr %32, null
  br i1 %.not65, label %34, label %33

33:                                               ; preds = %30
  tail call void @_efree(ptr noundef nonnull %32) #20
  br label %34

34:                                               ; preds = %33, %30
  %35 = getelementptr inbounds i8, ptr %0, i64 112
  %36 = load ptr, ptr %35, align 8
  %.not66 = icmp eq ptr %36, null
  br i1 %.not66, label %38, label %37

37:                                               ; preds = %34
  tail call void @_efree(ptr noundef nonnull %36) #20
  br label %38

38:                                               ; preds = %37, %34
  %39 = getelementptr inbounds i8, ptr %0, i64 120
  %40 = load ptr, ptr %39, align 8
  %.not67 = icmp eq ptr %40, null
  br i1 %.not67, label %42, label %41

41:                                               ; preds = %38
  tail call void @_efree(ptr noundef nonnull %40) #20
  br label %42

42:                                               ; preds = %41, %38
  %43 = getelementptr inbounds i8, ptr %0, i64 128
  %44 = load ptr, ptr %43, align 8
  %.not68 = icmp eq ptr %44, null
  br i1 %.not68, label %46, label %45

45:                                               ; preds = %42
  tail call void @_efree(ptr noundef nonnull %44) #20
  br label %46

46:                                               ; preds = %45, %42
  %47 = getelementptr inbounds i8, ptr %0, i64 136
  %48 = load ptr, ptr %47, align 8
  %.not69 = icmp eq ptr %48, null
  br i1 %.not69, label %50, label %49

49:                                               ; preds = %46
  tail call void @_efree(ptr noundef nonnull %48) #20
  br label %50

50:                                               ; preds = %49, %46
  %51 = getelementptr inbounds i8, ptr %0, i64 200
  %52 = load ptr, ptr %51, align 8
  %.not70 = icmp eq ptr %52, null
  br i1 %.not70, label %54, label %53

53:                                               ; preds = %50
  tail call void @_efree(ptr noundef nonnull %52) #20
  br label %54

54:                                               ; preds = %53, %50
  %55 = getelementptr inbounds i8, ptr %0, i64 208
  %56 = load ptr, ptr %55, align 8
  %.not71 = icmp eq ptr %56, null
  br i1 %.not71, label %.loopexit, label %.preheader

.preheader:                                       ; preds = %54, %.preheader
  %.0 = phi ptr [ %58, %.preheader ], [ %56, %54 ]
  %57 = getelementptr inbounds i8, ptr %.0, i64 16
  %58 = load ptr, ptr %57, align 8
  tail call void @_efree(ptr noundef nonnull %.0) #20
  %.not72 = icmp eq ptr %58, null
  br i1 %.not72, label %.loopexit, label %.preheader

.loopexit:                                        ; preds = %.preheader, %54
  %59 = getelementptr inbounds i8, ptr %0, i64 224
  %60 = load ptr, ptr %59, align 8
  %.not73 = icmp eq ptr %60, null
  br i1 %.not73, label %66, label %61

61:                                               ; preds = %.loopexit
  tail call void @_efree(ptr noundef nonnull %60) #20
  %62 = getelementptr inbounds i8, ptr %0, i64 232
  %63 = load ptr, ptr %62, align 8
  %.not74 = icmp eq ptr %63, null
  br i1 %.not74, label %66, label %64

64:                                               ; preds = %61
  tail call void @ir_strtab_free(ptr noundef nonnull %63) #20
  %65 = load ptr, ptr %62, align 8
  tail call void @_efree(ptr noundef %65) #20
  br label %66

66:                                               ; preds = %61, %64, %.loopexit
  %67 = getelementptr inbounds i8, ptr %0, i64 240
  %68 = load ptr, ptr %67, align 8
  %.not75 = icmp eq ptr %68, null
  br i1 %.not75, label %70, label %69

69:                                               ; preds = %66
  tail call void @_efree(ptr noundef nonnull %68) #20
  br label %70

70:                                               ; preds = %69, %66
  %71 = getelementptr inbounds i8, ptr %0, i64 304
  %72 = load ptr, ptr %71, align 8
  %.not76 = icmp eq ptr %72, null
  br i1 %.not76, label %74, label %73

73:                                               ; preds = %70
  tail call void @_efree(ptr noundef nonnull %72) #20
  br label %74

74:                                               ; preds = %73, %70
  %75 = getelementptr inbounds i8, ptr %0, i64 312
  %76 = load ptr, ptr %75, align 8
  %.not77 = icmp eq ptr %76, null
  br i1 %.not77, label %82, label %77

77:                                               ; preds = %74
  %78 = load ptr, ptr %76, align 8
  tail call void @_efree(ptr noundef %78) #20
  store ptr null, ptr %76, align 8
  %79 = getelementptr inbounds i8, ptr %76, i64 8
  store i32 0, ptr %79, align 8
  %80 = getelementptr inbounds i8, ptr %76, i64 16
  store i32 0, ptr %80, align 8
  %81 = load ptr, ptr %75, align 8
  tail call void @_efree(ptr noundef %81) #20
  br label %82

82:                                               ; preds = %77, %74
  ret void
}